; ModuleID = '24/2229.c'
source_filename = "24/2229.c"
target datalayout = "e-m:e-p270:32:32-p271:32:32-p272:64:64-i64:64-f80:128-n8:16:32:64-S128"
target triple = "x86_64-pc-linux-gnu"

@.str = private unnamed_addr constant [6 x i8] c"%s\0A%s\00", align 1

; Function Attrs: noinline nounwind uwtable
define dso_local i32 @main() #0 {
  %1 = alloca i32, align 4
  %2 = alloca [10000 x i8], align 16
  %3 = alloca [1000 x i8], align 16
  %4 = alloca [1000 x i8], align 16
  %5 = alloca [1000 x i8], align 16
  %6 = alloca i32, align 4
  %7 = alloca i32, align 4
  %8 = alloca i32, align 4
  %9 = alloca i32, align 4
  %10 = alloca i32, align 4
  %11 = alloca i32, align 4
  store i32 0, i32* %1, align 4
  %12 = bitcast [10000 x i8]* %2 to i8*
  call void @llvm.memset.p0i8.i64(i8* align 16 %12, i8 0, i64 10000, i1 false)
  %13 = bitcast [1000 x i8]* %3 to i8*
  call void @llvm.memset.p0i8.i64(i8* align 16 %13, i8 0, i64 1000, i1 false)
  %14 = bitcast [1000 x i8]* %4 to i8*
  call void @llvm.memset.p0i8.i64(i8* align 16 %14, i8 0, i64 1000, i1 false)
  %15 = bitcast [1000 x i8]* %5 to i8*
  call void @llvm.memset.p0i8.i64(i8* align 16 %15, i8 0, i64 1000, i1 false)
  %16 = getelementptr inbounds [10000 x i8], [10000 x i8]* %2, i64 0, i64 0
  %17 = call i32 (i8*, ...) bitcast (i32 (...)* @gets to i32 (i8*, ...)*)(i8* %16)
  store i32 0, i32* %8, align 4
  store i32 -1, i32* %9, align 4
  store i32 0, i32* %10, align 4
  store i32 10000, i32* %11, align 4
  %18 = getelementptr inbounds [10000 x i8], [10000 x i8]* %2, i64 0, i64 0
  %19 = call i64 @strlen(i8* %18) #5
  %20 = trunc i64 %19 to i32
  store i32 %20, i32* %6, align 4
  store i32 0, i32* %7, align 4
  br label %21

21:                                               ; preds = %82, %0
  %22 = load i32, i32* %7, align 4
  %23 = load i32, i32* %6, align 4
  %24 = sub nsw i32 %23, 1
  %25 = icmp sle i32 %22, %24
  br i1 %25, label %26, label %85

26:                                               ; preds = %21
  %27 = load i32, i32* %7, align 4
  %28 = sext i32 %27 to i64
  %29 = getelementptr inbounds [10000 x i8], [10000 x i8]* %2, i64 0, i64 %28
  %30 = load i8, i8* %29, align 1
  %31 = sext i8 %30 to i32
  %32 = icmp ne i32 %31, 32
  br i1 %32, label %33, label %50

33:                                               ; preds = %26
  %34 = load i32, i32* %7, align 4
  %35 = sext i32 %34 to i64
  %36 = getelementptr inbounds [10000 x i8], [10000 x i8]* %2, i64 0, i64 %35
  %37 = load i8, i8* %36, align 1
  %38 = sext i8 %37 to i32
  %39 = icmp ne i32 %38, 44
  br i1 %39, label %40, label %50

40:                                               ; preds = %33
  %41 = load i32, i32* %9, align 4
  %42 = add nsw i32 %41, 1
  store i32 %42, i32* %9, align 4
  %43 = load i32, i32* %7, align 4
  %44 = sext i32 %43 to i64
  %45 = getelementptr inbounds [10000 x i8], [10000 x i8]* %2, i64 0, i64 %44
  %46 = load i8, i8* %45, align 1
  %47 = load i32, i32* %9, align 4
  %48 = sext i32 %47 to i64
  %49 = getelementptr inbounds [1000 x i8], [1000 x i8]* %3, i64 0, i64 %48
  store i8 %46, i8* %49, align 1
  br label %81

50:                                               ; preds = %33, %26
  %51 = load i32, i32* %9, align 4
  %52 = icmp ne i32 %51, -1
  br i1 %52, label %53, label %80

53:                                               ; preds = %50
  %54 = load i32, i32* %9, align 4
  %55 = add nsw i32 %54, 1
  %56 = sext i32 %55 to i64
  %57 = getelementptr inbounds [1000 x i8], [1000 x i8]* %3, i64 0, i64 %56
  store i8 0, i8* %57, align 1
  %58 = load i32, i32* %9, align 4
  %59 = add nsw i32 %58, 1
  %60 = load i32, i32* %10, align 4
  %61 = icmp sgt i32 %59, %60
  br i1 %61, label %62, label %68

62:                                               ; preds = %53
  %63 = load i32, i32* %9, align 4
  %64 = add nsw i32 %63, 1
  store i32 %64, i32* %10, align 4
  %65 = getelementptr inbounds [1000 x i8], [1000 x i8]* %4, i64 0, i64 0
  %66 = getelementptr inbounds [1000 x i8], [1000 x i8]* %3, i64 0, i64 0
  %67 = call i8* @strcpy(i8* %65, i8* %66) #6
  br label %68

68:                                               ; preds = %62, %53
  %69 = load i32, i32* %9, align 4
  %70 = add nsw i32 %69, 1
  %71 = load i32, i32* %11, align 4
  %72 = icmp slt i32 %70, %71
  br i1 %72, label %73, label %79

73:                                               ; preds = %68
  %74 = load i32, i32* %9, align 4
  %75 = add nsw i32 %74, 1
  store i32 %75, i32* %11, align 4
  %76 = getelementptr inbounds [1000 x i8], [1000 x i8]* %5, i64 0, i64 0
  %77 = getelementptr inbounds [1000 x i8], [1000 x i8]* %3, i64 0, i64 0
  %78 = call i8* @strcpy(i8* %76, i8* %77) #6
  br label %79

79:                                               ; preds = %73, %68
  store i32 -1, i32* %9, align 4
  br label %80

80:                                               ; preds = %79, %50
  br label %81

81:                                               ; preds = %80, %40
  br label %82

82:                                               ; preds = %81
  %83 = load i32, i32* %7, align 4
  %84 = add nsw i32 %83, 1
  store i32 %84, i32* %7, align 4
  br label %21

85:                                               ; preds = %21
  %86 = load i32, i32* %9, align 4
  %87 = add nsw i32 %86, 1
  %88 = sext i32 %87 to i64
  %89 = getelementptr inbounds [1000 x i8], [1000 x i8]* %3, i64 0, i64 %88
  store i8 0, i8* %89, align 1
  %90 = load i32, i32* %9, align 4
  %91 = add nsw i32 %90, 1
  %92 = load i32, i32* %10, align 4
  %93 = icmp sgt i32 %91, %92
  br i1 %93, label %94, label %100

94:                                               ; preds = %85
  %95 = load i32, i32* %9, align 4
  %96 = add nsw i32 %95, 1
  store i32 %96, i32* %10, align 4
  %97 = getelementptr inbounds [1000 x i8], [1000 x i8]* %4, i64 0, i64 0
  %98 = getelementptr inbounds [1000 x i8], [1000 x i8]* %3, i64 0, i64 0
  %99 = call i8* @strcpy(i8* %97, i8* %98) #6
  br label %100

100:                                              ; preds = %94, %85
  %101 = load i32, i32* %9, align 4
  %102 = add nsw i32 %101, 1
  %103 = load i32, i32* %11, align 4
  %104 = icmp slt i32 %102, %103
  br i1 %104, label %105, label %111

105:                                              ; preds = %100
  %106 = load i32, i32* %9, align 4
  %107 = add nsw i32 %106, 1
  store i32 %107, i32* %11, align 4
  %108 = getelementptr inbounds [1000 x i8], [1000 x i8]* %5, i64 0, i64 0
  %109 = getelementptr inbounds [1000 x i8], [1000 x i8]* %3, i64 0, i64 0
  %110 = call i8* @strcpy(i8* %108, i8* %109) #6
  br label %111

111:                                              ; preds = %105, %100
  %112 = getelementptr inbounds [1000 x i8], [1000 x i8]* %4, i64 0, i64 0
  %113 = getelementptr inbounds [1000 x i8], [1000 x i8]* %5, i64 0, i64 0
  %114 = call i32 (i8*, ...) @printf(i8* getelementptr inbounds ([6 x i8], [6 x i8]* @.str, i64 0, i64 0), i8* %112, i8* %113)
  ret i32 0
}

; Function Attrs: argmemonly nounwind willreturn
declare void @llvm.memset.p0i8.i64(i8* nocapture writeonly, i8, i64, i1 immarg) #1

declare dso_local i32 @gets(...) #2

; Function Attrs: nounwind readonly
declare dso_local i64 @strlen(i8*) #3

; Function Attrs: nounwind
declare dso_local i8* @strcpy(i8*, i8*) #4

declare dso_local i32 @printf(i8*, ...) #2


!llvm.module.flags = !{!0}
!llvm.ident = !{!1}

!0 = !{i32 1, !"wchar_size", i32 4}
!1 = !{!"clang version 10.0.0-4ubuntu1 "}
