; ModuleID = 'source-C-CXX/23/2229.c'
source_filename = "source-C-CXX/23/2229.c"
target datalayout = "e-m:e-p270:32:32-p271:32:32-p272:64:64-i64:64-f80:128-n8:16:32:64-S128"
target triple = "x86_64-pc-linux-gnu"

@.str = private unnamed_addr constant [6 x i8] c"%s\0A%s\00", align 1

; Function Attrs: nounwind sspstrong uwtable
define dso_local i32 @main() local_unnamed_addr #0 {
  %1 = alloca [10000 x i8], align 16
  %2 = alloca [1000 x i8], align 16
  %3 = alloca [1000 x i8], align 16
  %4 = alloca [1000 x i8], align 16
  %5 = getelementptr inbounds [10000 x i8], [10000 x i8]* %1, i64 0, i64 0
  call void @llvm.lifetime.start.p0i8(i64 10000, i8* nonnull %5) #7
  call void @llvm.memset.p0i8.i64(i8* noundef nonnull align 16 dereferenceable(10000) %5, i8 0, i64 10000, i1 false)
  %6 = getelementptr inbounds [1000 x i8], [1000 x i8]* %2, i64 0, i64 0
  call void @llvm.lifetime.start.p0i8(i64 1000, i8* nonnull %6) #7
  call void @llvm.memset.p0i8.i64(i8* noundef nonnull align 16 dereferenceable(1000) %6, i8 0, i64 1000, i1 false)
  %7 = getelementptr inbounds [1000 x i8], [1000 x i8]* %3, i64 0, i64 0
  call void @llvm.lifetime.start.p0i8(i64 1000, i8* nonnull %7) #7
  call void @llvm.memset.p0i8.i64(i8* noundef nonnull align 16 dereferenceable(1000) %7, i8 0, i64 1000, i1 false)
  %8 = getelementptr inbounds [1000 x i8], [1000 x i8]* %4, i64 0, i64 0
  call void @llvm.lifetime.start.p0i8(i64 1000, i8* nonnull %8) #7
  call void @llvm.memset.p0i8.i64(i8* noundef nonnull align 16 dereferenceable(1000) %8, i8 0, i64 1000, i1 false)
  %9 = call i32 (i8*, ...) bitcast (i32 (...)* @gets to i32 (i8*, ...)*)(i8* nonnull %5) #7
  %10 = call i64 @strlen(i8* noundef nonnull %5) #8
  %11 = trunc i64 %10 to i32
  %12 = icmp sgt i32 %11, 0
  br i1 %12, label %15, label %13

13:                                               ; preds = %0
  %14 = getelementptr inbounds [1000 x i8], [1000 x i8]* %2, i64 0, i64 0
  store i8 0, i8* %14, align 16, !tbaa !5
  br label %57

15:                                               ; preds = %0
  %16 = and i64 %10, 4294967295
  br label %17

17:                                               ; preds = %15, %42
  %18 = phi i64 [ 0, %15 ], [ %46, %42 ]
  %19 = phi i32 [ 10000, %15 ], [ %45, %42 ]
  %20 = phi i32 [ 0, %15 ], [ %44, %42 ]
  %21 = phi i32 [ -1, %15 ], [ %43, %42 ]
  %22 = getelementptr inbounds [10000 x i8], [10000 x i8]* %1, i64 0, i64 %18
  %23 = load i8, i8* %22, align 1, !tbaa !5
  switch i8 %23, label %24 [
    i8 32, label %28
    i8 44, label %28
  ]

24:                                               ; preds = %17
  %25 = add nsw i32 %21, 1
  %26 = sext i32 %25 to i64
  %27 = getelementptr inbounds [1000 x i8], [1000 x i8]* %2, i64 0, i64 %26
  store i8 %23, i8* %27, align 1, !tbaa !5
  br label %42

28:                                               ; preds = %17, %17
  %29 = icmp eq i32 %21, -1
  br i1 %29, label %42, label %30

30:                                               ; preds = %28
  %31 = add nuw nsw i32 %21, 1
  %32 = sext i32 %31 to i64
  %33 = getelementptr inbounds [1000 x i8], [1000 x i8]* %2, i64 0, i64 %32
  store i8 0, i8* %33, align 1, !tbaa !5
  %34 = icmp slt i32 %21, %20
  br i1 %34, label %37, label %35

35:                                               ; preds = %30
  %36 = call i8* @strcpy(i8* noundef nonnull %7, i8* noundef nonnull %6) #7
  br label %37

37:                                               ; preds = %35, %30
  %38 = phi i32 [ %31, %35 ], [ %20, %30 ]
  %39 = icmp slt i32 %31, %19
  br i1 %39, label %40, label %42

40:                                               ; preds = %37
  %41 = call i8* @strcpy(i8* noundef nonnull %8, i8* noundef nonnull %6) #7
  br label %42

42:                                               ; preds = %37, %40, %24, %28
  %43 = phi i32 [ %25, %24 ], [ -1, %28 ], [ -1, %40 ], [ -1, %37 ]
  %44 = phi i32 [ %20, %24 ], [ %20, %28 ], [ %38, %40 ], [ %38, %37 ]
  %45 = phi i32 [ %19, %24 ], [ %19, %28 ], [ %31, %40 ], [ %19, %37 ]
  %46 = add nuw nsw i64 %18, 1
  %47 = icmp eq i64 %46, %16
  br i1 %47, label %48, label %17, !llvm.loop !8

48:                                               ; preds = %42
  %49 = add nsw i32 %43, 1
  %50 = sext i32 %49 to i64
  %51 = getelementptr inbounds [1000 x i8], [1000 x i8]* %2, i64 0, i64 %50
  store i8 0, i8* %51, align 1, !tbaa !5
  %52 = icmp slt i32 %43, %44
  br i1 %52, label %55, label %53

53:                                               ; preds = %48
  %54 = call i8* @strcpy(i8* noundef nonnull %7, i8* noundef nonnull %6) #7
  br label %55

55:                                               ; preds = %53, %48
  %56 = icmp slt i32 %49, %45
  br i1 %56, label %57, label %59

57:                                               ; preds = %13, %55
  %58 = call i8* @strcpy(i8* noundef nonnull %8, i8* noundef nonnull %6) #7
  br label %59

59:                                               ; preds = %57, %55
  %60 = call i32 (i8*, ...) @printf(i8* nonnull dereferenceable(1) getelementptr inbounds ([6 x i8], [6 x i8]* @.str, i64 0, i64 0), i8* nonnull %7, i8* nonnull %8)
  call void @llvm.lifetime.end.p0i8(i64 1000, i8* nonnull %8) #7
  call void @llvm.lifetime.end.p0i8(i64 1000, i8* nonnull %7) #7
  call void @llvm.lifetime.end.p0i8(i64 1000, i8* nonnull %6) #7
  call void @llvm.lifetime.end.p0i8(i64 10000, i8* nonnull %5) #7
  ret i32 0
}

; Function Attrs: argmemonly mustprogress nofree nosync nounwind willreturn
declare void @llvm.lifetime.start.p0i8(i64 immarg, i8* nocapture) #1

; Function Attrs: argmemonly mustprogress nofree nounwind willreturn writeonly
declare void @llvm.memset.p0i8.i64(i8* nocapture writeonly, i8, i64, i1 immarg) #2

declare i32 @gets(...) local_unnamed_addr #3

; Function Attrs: argmemonly mustprogress nofree nounwind readonly willreturn
declare i64 @strlen(i8* nocapture) local_unnamed_addr #4

; Function Attrs: argmemonly mustprogress nofree nounwind willreturn
declare i8* @strcpy(i8* noalias returned writeonly, i8* noalias nocapture readonly) local_unnamed_addr #5

; Function Attrs: nofree nounwind
declare noundef i32 @printf(i8* nocapture noundef readonly, ...) local_unnamed_addr #6

; Function Attrs: argmemonly mustprogress nofree nosync nounwind willreturn
declare void @llvm.lifetime.end.p0i8(i64 immarg, i8* nocapture) #1


!llvm.module.flags = !{!0, !1, !2, !3}
!llvm.ident = !{!4}

!0 = !{i32 1, !"wchar_size", i32 4}
!1 = !{i32 7, !"PIC Level", i32 2}
!2 = !{i32 7, !"PIE Level", i32 2}
!3 = !{i32 7, !"uwtable", i32 1}
!4 = !{!"clang version 13.0.0"}
!5 = !{!6, !6, i64 0}
!6 = !{!"omnipotent char", !7, i64 0}
!7 = !{!"Simple C/C++ TBAA"}
!8 = distinct !{!8, !9}
!9 = !{!"llvm.loop.mustprogress"}
